target datalayout = "e-m:e-p270:32:32-p271:32:32-p272:64:64-i64:64-i128:128-f80:128-n8:16:32:64-S128"
target triple = "x86_64-pc-linux-gnu"

%union.pthread_mutex_t = type { %struct.__pthread_mutex_s }
%struct.__pthread_mutex_s = type { i32, i32, i32, i32, i32, i16, i16, %struct.__pthread_internal_list }
%struct.__pthread_internal_list = type { ptr, ptr }
%struct.thread_status_t = type { ptr, i64, %union.pthread_mutex_t, %union.pthread_cond_t, [24 x i8] }
%union.pthread_cond_t = type { %struct.__pthread_cond_s }
%struct.__pthread_cond_s = type { %union.__atomic_wide_counter, %union.__atomic_wide_counter, [2 x i32], [2 x i32], i32, i32, [2 x i32] }
%union.__atomic_wide_counter = type { i64 }
%struct.blas_queue = type { ptr, i64, i64, ptr, ptr, ptr, ptr, ptr, ptr, %union.pthread_mutex_t, %union.pthread_cond_t, i32, i32 }

@thread_status = internal global [16 x %struct.thread_status_t] zeroinitializer, align 128
@blas_thread_buffer = internal global [16 x ptr] zeroinitializer, align 16

; Function Attrs: nounwind uwtable
define internal void @exec_threads(i32 noundef %0, ptr noundef %1, i32 noundef %2) #0 {
  %4 = alloca i32, align 4
  %5 = alloca ptr, align 8
  %6 = alloca i32, align 4
  %7 = alloca ptr, align 8
  %8 = alloca ptr, align 8
  %9 = alloca ptr, align 8
  %10 = alloca ptr, align 8
  %11 = alloca ptr, align 8
  %12 = alloca ptr, align 8
  %13 = alloca ptr, align 8
  store i32 %0, ptr %4, align 4, !tbaa !3
  store ptr %1, ptr %5, align 8, !tbaa !11
  store i32 %2, ptr %6, align 4, !tbaa !3
  call void @llvm.lifetime.start.p0(i64 8, ptr %7) #8
  %14 = load ptr, ptr %5, align 8, !tbaa !11
  %15 = getelementptr inbounds nuw %struct.blas_queue, ptr %14, i32 0, i32 0
  %16 = load ptr, ptr %15, align 8, !tbaa !48
  store ptr %16, ptr %7, align 8, !tbaa !9
  %17 = load i32, ptr %4, align 4, !tbaa !3
  %18 = sext i32 %17 to i64
  %19 = getelementptr inbounds [16 x %struct.thread_status_t], ptr @thread_status, i64 0, i64 %18
  %20 = getelementptr inbounds nuw %struct.thread_status_t, ptr %19, i32 0, i32 0
  store ptr inttoptr (i64 1 to ptr), ptr %8, align 8, !tbaa !11
  %21 = load i64, ptr %8, align 8
  store atomic volatile i64 %21, ptr %20 monotonic, align 128
  call void @llvm.lifetime.start.p0(i64 8, ptr %9) #8
  %22 = load i32, ptr %4, align 4, !tbaa !3
  %23 = sext i32 %22 to i64
  %24 = getelementptr inbounds [16 x ptr], ptr @blas_thread_buffer, i64 0, i64 %23
  %25 = load ptr, ptr %24, align 8, !tbaa !9
  store ptr %25, ptr %9, align 8, !tbaa !9
  call void @llvm.lifetime.start.p0(i64 8, ptr %10) #8
  %26 = load ptr, ptr %5, align 8, !tbaa !11
  %27 = getelementptr inbounds nuw %struct.blas_queue, ptr %26, i32 0, i32 6
  %28 = load ptr, ptr %27, align 8, !tbaa !54
  store ptr %28, ptr %10, align 8, !tbaa !9
  call void @llvm.lifetime.start.p0(i64 8, ptr %11) #8
  %29 = load ptr, ptr %5, align 8, !tbaa !11
  %30 = getelementptr inbounds nuw %struct.blas_queue, ptr %29, i32 0, i32 7
  %31 = load ptr, ptr %30, align 8, !tbaa !51
  store ptr %31, ptr %11, align 8, !tbaa !9
  %32 = load ptr, ptr %9, align 8, !tbaa !9
  %33 = icmp eq ptr %32, null
  br i1 %33, label %34, label %43

34:                                               ; preds = %3
  %35 = call ptr @blas_memory_alloc(i32 noundef 2)
  %36 = load i32, ptr %4, align 4, !tbaa !3
  %37 = sext i32 %36 to i64
  %38 = getelementptr inbounds [16 x ptr], ptr @blas_thread_buffer, i64 0, i64 %37
  store ptr %35, ptr %38, align 8, !tbaa !9
  %39 = load i32, ptr %4, align 4, !tbaa !3
  %40 = sext i32 %39 to i64
  %41 = getelementptr inbounds [16 x ptr], ptr @blas_thread_buffer, i64 0, i64 %40
  %42 = load ptr, ptr %41, align 8, !tbaa !9
  store ptr %42, ptr %9, align 8, !tbaa !9
  br label %43

43:                                               ; preds = %34, %3
  %44 = load ptr, ptr %10, align 8, !tbaa !9
  %45 = icmp eq ptr %44, null
  br i1 %45, label %46, label %51

46:                                               ; preds = %43
  %47 = load ptr, ptr %9, align 8, !tbaa !9
  %48 = ptrtoint ptr %47 to i64
  %49 = add nsw i64 %48, 0
  %50 = inttoptr i64 %49 to ptr
  store ptr %50, ptr %10, align 8, !tbaa !9
  br label %51

51:                                               ; preds = %46, %43
  %52 = load ptr, ptr %11, align 8, !tbaa !9
  %53 = icmp eq ptr %52, null
  br i1 %53, label %54, label %103

54:                                               ; preds = %51
  %55 = load ptr, ptr %5, align 8, !tbaa !11
  %56 = getelementptr inbounds nuw %struct.blas_queue, ptr %55, i32 0, i32 11
  %57 = load i32, ptr %56, align 8, !tbaa !49
  %58 = and i32 %57, 4096
  %59 = icmp ne i32 %58, 0
  br i1 %59, label %82, label %60

60:                                               ; preds = %54
  %61 = load ptr, ptr %5, align 8, !tbaa !11
  %62 = getelementptr inbounds nuw %struct.blas_queue, ptr %61, i32 0, i32 11
  %63 = load i32, ptr %62, align 8, !tbaa !49
  %64 = and i32 %63, 15
  %65 = icmp eq i32 %64, 3
  br i1 %65, label %66, label %72

66:                                               ; preds = %60
  %67 = load ptr, ptr %10, align 8, !tbaa !9
  %68 = ptrtoint ptr %67 to i64
  %69 = add i64 %68, 589824
  %70 = add i64 %69, 0
  %71 = inttoptr i64 %70 to ptr
  store ptr %71, ptr %11, align 8, !tbaa !9
  br label %81

72:                                               ; preds = %60
  %73 = load ptr, ptr %5, align 8, !tbaa !11
  %74 = getelementptr inbounds nuw %struct.blas_queue, ptr %73, i32 0, i32 11
  %75 = load i32, ptr %74, align 8, !tbaa !49
  %76 = and i32 %75, 15
  %77 = icmp eq i32 %76, 2
  br i1 %77, label %78, label %79

78:                                               ; preds = %72
  br label %80

79:                                               ; preds = %72
  br label %80

80:                                               ; preds = %79, %78
  br label %81

81:                                               ; preds = %80, %66
  br label %99

82:                                               ; preds = %54
  %83 = load ptr, ptr %5, align 8, !tbaa !11
  %84 = getelementptr inbounds nuw %struct.blas_queue, ptr %83, i32 0, i32 11
  %85 = load i32, ptr %84, align 8, !tbaa !49
  %86 = and i32 %85, 15
  %87 = icmp eq i32 %86, 3
  br i1 %87, label %88, label %89

88:                                               ; preds = %82
  br label %98

89:                                               ; preds = %82
  %90 = load ptr, ptr %5, align 8, !tbaa !11
  %91 = getelementptr inbounds nuw %struct.blas_queue, ptr %90, i32 0, i32 11
  %92 = load i32, ptr %91, align 8, !tbaa !49
  %93 = and i32 %92, 15
  %94 = icmp eq i32 %93, 2
  br i1 %94, label %95, label %96

95:                                               ; preds = %89
  br label %97

96:                                               ; preds = %89
  br label %97

97:                                               ; preds = %96, %95
  br label %98

98:                                               ; preds = %97, %88
  br label %99

99:                                               ; preds = %98, %81
  %100 = load ptr, ptr %11, align 8, !tbaa !9
  %101 = load ptr, ptr %5, align 8, !tbaa !11
  %102 = getelementptr inbounds nuw %struct.blas_queue, ptr %101, i32 0, i32 7
  store ptr %100, ptr %102, align 8, !tbaa !51
  br label %103

103:                                              ; preds = %99, %51
  %104 = load ptr, ptr %5, align 8, !tbaa !11
  %105 = getelementptr inbounds nuw %struct.blas_queue, ptr %104, i32 0, i32 11
  %106 = load i32, ptr %105, align 8, !tbaa !49
  %107 = and i32 %106, 32768
  %108 = icmp ne i32 %107, 0
  br i1 %108, label %109, label %118

109:                                              ; preds = %103
  %110 = load ptr, ptr %7, align 8, !tbaa !9
  %111 = load ptr, ptr %5, align 8, !tbaa !11
  %112 = getelementptr inbounds nuw %struct.blas_queue, ptr %111, i32 0, i32 11
  %113 = load i32, ptr %112, align 8, !tbaa !49
  %114 = load ptr, ptr %5, align 8, !tbaa !11
  %115 = getelementptr inbounds nuw %struct.blas_queue, ptr %114, i32 0, i32 3
  %116 = load ptr, ptr %115, align 8, !tbaa !50
  %117 = load ptr, ptr %11, align 8, !tbaa !9
  call void @legacy_exec(ptr noundef %110, i32 noundef %113, ptr noundef %116, ptr noundef %117)
  br label %150

118:                                              ; preds = %103
  %119 = load ptr, ptr %5, align 8, !tbaa !11
  %120 = getelementptr inbounds nuw %struct.blas_queue, ptr %119, i32 0, i32 11
  %121 = load i32, ptr %120, align 8, !tbaa !49
  %122 = and i32 %121, 16384
  %123 = icmp ne i32 %122, 0
  br i1 %123, label %124, label %132

124:                                              ; preds = %118
  call void @llvm.lifetime.start.p0(i64 8, ptr %12) #8
  %125 = load ptr, ptr %5, align 8, !tbaa !11
  %126 = getelementptr inbounds nuw %struct.blas_queue, ptr %125, i32 0, i32 0
  %127 = load ptr, ptr %126, align 8, !tbaa !48
  store ptr %127, ptr %12, align 8, !tbaa !9
  %128 = load ptr, ptr %12, align 8, !tbaa !9
  %129 = load ptr, ptr %5, align 8, !tbaa !11
  %130 = getelementptr inbounds nuw %struct.blas_queue, ptr %129, i32 0, i32 3
  %131 = load ptr, ptr %130, align 8, !tbaa !50
  call void %128(ptr noundef %131)
  call void @llvm.lifetime.end.p0(i64 8, ptr %12) #8
  br label %149

132:                                              ; preds = %118
  %133 = load ptr, ptr %7, align 8, !tbaa !9
  %134 = load ptr, ptr %5, align 8, !tbaa !11
  %135 = getelementptr inbounds nuw %struct.blas_queue, ptr %134, i32 0, i32 3
  %136 = load ptr, ptr %135, align 8, !tbaa !50
  %137 = load ptr, ptr %5, align 8, !tbaa !11
  %138 = getelementptr inbounds nuw %struct.blas_queue, ptr %137, i32 0, i32 4
  %139 = load ptr, ptr %138, align 8, !tbaa !52
  %140 = load ptr, ptr %5, align 8, !tbaa !11
  %141 = getelementptr inbounds nuw %struct.blas_queue, ptr %140, i32 0, i32 5
  %142 = load ptr, ptr %141, align 8, !tbaa !53
  %143 = load ptr, ptr %10, align 8, !tbaa !9
  %144 = load ptr, ptr %11, align 8, !tbaa !9
  %145 = load ptr, ptr %5, align 8, !tbaa !11
  %146 = getelementptr inbounds nuw %struct.blas_queue, ptr %145, i32 0, i32 1
  %147 = load i64, ptr %146, align 8, !tbaa !28
  %148 = call i32 %133(ptr noundef %136, ptr noundef %139, ptr noundef %142, ptr noundef %143, ptr noundef %144, i64 noundef %147)
  br label %149

149:                                              ; preds = %132, %124
  br label %150

150:                                              ; preds = %149, %109
  br label %151

151:                                              ; preds = %150
  call void asm sideeffect "", "~{memory},~{dirflag},~{fpsr},~{flags}"() #8, !srcloc !56
  br label %152

152:                                              ; preds = %151
  br label %153

153:                                              ; preds = %152
  %154 = load i32, ptr %4, align 4, !tbaa !3
  %155 = sext i32 %154 to i64
  %156 = getelementptr inbounds [16 x %struct.thread_status_t], ptr @thread_status, i64 0, i64 %155
  %157 = getelementptr inbounds nuw %struct.thread_status_t, ptr %156, i32 0, i32 0
  store ptr null, ptr %13, align 8, !tbaa !11
  %158 = load i64, ptr %13, align 8
  store atomic volatile i64 %158, ptr %157 monotonic, align 128
  call void @llvm.lifetime.end.p0(i64 8, ptr %11) #8
  call void @llvm.lifetime.end.p0(i64 8, ptr %10) #8
  call void @llvm.lifetime.end.p0(i64 8, ptr %9) #8
  call void @llvm.lifetime.end.p0(i64 8, ptr %7) #8
  ret void
}