; Function Attrs: nounwind uwtable
define internal void @exec_threads(i32 noundef %0, ptr noundef captures(none) %1, i32 %2) #0 {
  %4 = load ptr, ptr %1, align 8, !tbaa !47
  %5 = sext i32 %0 to i64
  %6 = getelementptr inbounds [16 x %struct.thread_status_t], ptr @thread_status, i64 0, i64 %5
  store atomic volatile i64 1, ptr %6 monotonic, align 128
  %7 = getelementptr inbounds [16 x ptr], ptr @blas_thread_buffer, i64 0, i64 %5
  %8 = load ptr, ptr %7, align 8, !tbaa !9
  %9 = getelementptr inbounds nuw i8, ptr %1, i64 48
  %10 = load ptr, ptr %9, align 8, !tbaa !53
  %11 = getelementptr inbounds nuw i8, ptr %1, i64 56
  %12 = load ptr, ptr %11, align 8, !tbaa !50
  %13 = icmp eq ptr %8, null
  br i1 %13, label %14, label %16

14:                                               ; preds = %3
  %15 = tail call ptr @blas_memory_alloc(i32 noundef 2) #10
  store ptr %15, ptr %7, align 8, !tbaa !9
  br label %16

16:                                               ; preds = %14, %3
  %.0 = phi ptr [ %15, %14 ], [ %8, %3 ]
  %17 = icmp eq ptr %10, null
  %spec.select = select i1 %17, ptr %.0, ptr %10
  %18 = icmp eq ptr %12, null
  %19 = getelementptr inbounds nuw i8, ptr %1, i64 160
  %20 = load i32, ptr %19, align 8, !tbaa !48
  br i1 %18, label %21, label %._crit_edge

21:                                               ; preds = %16
  %22 = and i32 %20, 4111
  %or.cond = icmp eq i32 %22, 3
  %23 = ptrtoint ptr %spec.select to i64
  %24 = add i64 %23, 589824
  %25 = inttoptr i64 %24 to ptr
  %.1 = select i1 %or.cond, ptr %25, ptr null
  store ptr %.1, ptr %11, align 8, !tbaa !50
  br label %._crit_edge

._crit_edge:                                      ; preds = %16, %21
  %.036 = phi ptr [ %.1, %21 ], [ %12, %16 ]
  %26 = and i32 %20, 32768
  %.not41 = icmp eq i32 %26, 0
  br i1 %.not41, label %30, label %27

27:                                               ; preds = %._crit_edge
  %28 = getelementptr inbounds nuw i8, ptr %1, i64 24
  %29 = load ptr, ptr %28, align 8, !tbaa !49
  tail call fastcc void @legacy_exec(ptr noundef %4, i32 noundef %20, ptr noundef %29, ptr noundef %.036)
  br label %46

30:                                               ; preds = %._crit_edge
  %31 = and i32 %20, 16384
  %.not42 = icmp eq i32 %31, 0
  br i1 %.not42, label %36, label %32

32:                                               ; preds = %30
  %33 = load ptr, ptr %1, align 8, !tbaa !47
  %34 = getelementptr inbounds nuw i8, ptr %1, i64 24
  %35 = load ptr, ptr %34, align 8, !tbaa !49
  tail call void %33(ptr noundef %35) #10
  br label %46

36:                                               ; preds = %30
  %37 = getelementptr inbounds nuw i8, ptr %1, i64 24
  %38 = load ptr, ptr %37, align 8, !tbaa !49
  %39 = getelementptr inbounds nuw i8, ptr %1, i64 32
  %40 = load ptr, ptr %39, align 8, !tbaa !51
  %41 = getelementptr inbounds nuw i8, ptr %1, i64 40
  %42 = load ptr, ptr %41, align 8, !tbaa !52
  %43 = getelementptr inbounds nuw i8, ptr %1, i64 8
  %44 = load i64, ptr %43, align 8, !tbaa !34
  %45 = tail call i32 %4(ptr noundef %38, ptr noundef %40, ptr noundef %42, ptr noundef %spec.select, ptr noundef %.036, i64 noundef %44) #10
  br label %46

46:                                               ; preds = %27, %36, %32
  tail call void asm sideeffect "", "~{memory},~{dirflag},~{fpsr},~{flags}"() #10, !srcloc !55
  store atomic volatile i64 0, ptr %6 monotonic, align 128
  ret void
}